; Function Attrs: mustprogress nofree norecurse nosync nounwind memory(read, inaccessiblemem: write) uwtable
define dso_local { ptr, i32 } @_ZN4llvm3rdf9InstrNode8getOwnerERKNS0_13DataFlowGraphE(ptr noundef nonnull readonly align 8 dereferenceable(32) %0, ptr noundef nonnull readonly align 8 captures(none) dereferenceable(736) %1) local_unnamed_addr #4 align 2 {
_ZNK4llvm3rdf13DataFlowGraph4addrIPNS0_8NodeBaseEEENS0_8NodeAddrIT_EEj.exit:
  %2 = getelementptr inbounds nuw i8, ptr %0, i64 4
  %3 = load i32, ptr %2, align 4
  %4 = icmp ne i32 %3, 0
  tail call void @llvm.assume(i1 %4)
  %5 = add i32 %3, -1
  %6 = getelementptr inbounds nuw i8, ptr %1, i64 284
  %7 = load i32, ptr %6, align 4
  %8 = lshr i32 %5, %7
  %9 = getelementptr inbounds nuw i8, ptr %1, i64 288
  %10 = load i32, ptr %9, align 8
  %11 = and i32 %10, %5
  %12 = shl i32 %11, 5
  %13 = getelementptr inbounds nuw i8, ptr %1, i64 304
  %14 = zext i32 %8 to i64
  %15 = load ptr, ptr %13, align 8
  %16 = getelementptr inbounds nuw ptr, ptr %15, i64 %14
  %17 = load ptr, ptr %16, align 8
  %18 = zext i32 %12 to i64
  %19 = getelementptr inbounds nuw i8, ptr %17, i64 %18
  %20 = icmp ne ptr %19, %0
  tail call void @llvm.assume(i1 %20)
  %21 = load i16, ptr %19, align 8
  %22 = and i16 %21, 28
  %23 = icmp eq i16 %22, 20
  br i1 %23, label %._crit_edge, label %_ZNK4llvm3rdf13DataFlowGraph4addrIPNS0_8NodeBaseEEENS0_8NodeAddrIT_EEj.exit16

._crit_edge:                                      ; preds = %_ZNK4llvm3rdf13DataFlowGraph4addrIPNS0_8NodeBaseEEENS0_8NodeAddrIT_EEj.exit16, %_ZNK4llvm3rdf13DataFlowGraph4addrIPNS0_8NodeBaseEEENS0_8NodeAddrIT_EEj.exit
  %.0.i.i.i.pn.lcssa = phi ptr [ %19, %_ZNK4llvm3rdf13DataFlowGraph4addrIPNS0_8NodeBaseEEENS0_8NodeAddrIT_EEj.exit ], [ %35, %_ZNK4llvm3rdf13DataFlowGraph4addrIPNS0_8NodeBaseEEENS0_8NodeAddrIT_EEj.exit16 ]
  %.pn17.lcssa = phi i32 [ %3, %_ZNK4llvm3rdf13DataFlowGraph4addrIPNS0_8NodeBaseEEENS0_8NodeAddrIT_EEj.exit ], [ %25, %_ZNK4llvm3rdf13DataFlowGraph4addrIPNS0_8NodeBaseEEENS0_8NodeAddrIT_EEj.exit16 ]
  %.fca.0.insert.i.pn = insertvalue { ptr, i32 } poison, ptr %.0.i.i.i.pn.lcssa, 0
  %.pn = insertvalue { ptr, i32 } %.fca.0.insert.i.pn, i32 %.pn17.lcssa, 1
  ret { ptr, i32 } %.pn

_ZNK4llvm3rdf13DataFlowGraph4addrIPNS0_8NodeBaseEEENS0_8NodeAddrIT_EEj.exit16: ; preds = %_ZNK4llvm3rdf13DataFlowGraph4addrIPNS0_8NodeBaseEEENS0_8NodeAddrIT_EEj.exit, %_ZNK4llvm3rdf13DataFlowGraph4addrIPNS0_8NodeBaseEEENS0_8NodeAddrIT_EEj.exit16
  %.0.i.i.i.pn19 = phi ptr [ %35, %_ZNK4llvm3rdf13DataFlowGraph4addrIPNS0_8NodeBaseEEENS0_8NodeAddrIT_EEj.exit16 ], [ %19, %_ZNK4llvm3rdf13DataFlowGraph4addrIPNS0_8NodeBaseEEENS0_8NodeAddrIT_EEj.exit ]
  %24 = getelementptr inbounds nuw i8, ptr %.0.i.i.i.pn19, i64 4
  %25 = load i32, ptr %24, align 4
  %26 = icmp ne i32 %25, 0
  tail call void @llvm.assume(i1 %26)
  %27 = add i32 %25, -1
  %28 = lshr i32 %27, %7
  %29 = and i32 %10, %27
  %30 = shl i32 %29, 5
  %31 = zext i32 %28 to i64
  %32 = getelementptr inbounds nuw ptr, ptr %15, i64 %31
  %33 = load ptr, ptr %32, align 8
  %34 = zext i32 %30 to i64
  %35 = getelementptr inbounds nuw i8, ptr %33, i64 %34
  %36 = icmp ne ptr %35, %0
  tail call void @llvm.assume(i1 %36)
  %37 = load i16, ptr %35, align 8
  %38 = and i16 %37, 28
  %39 = icmp eq i16 %38, 20
  br i1 %39, label %._crit_edge, label %_ZNK4llvm3rdf13DataFlowGraph4addrIPNS0_8NodeBaseEEENS0_8NodeAddrIT_EEj.exit16, !llvm.loop !16
}